target datalayout = "e-m:e-p270:32:32-p271:32:32-p272:64:64-i64:64-i128:128-f80:128-n8:16:32:64-S128"
target triple = "x86_64-pc-linux-gnu"

%"class.std::__shared_count" = type { ptr }
%"class.dropbox::oxygen::nn.42" = type { %"class.std::shared_ptr.43" }
%"class.std::shared_ptr.43" = type { %"class.std::__shared_ptr.44" }
%"class.std::__shared_ptr.44" = type { ptr, %"class.std::__shared_count" }
%"struct.std::_Vector_base.140" = type { %"struct.std::_Vector_base<dropbox::oxygen::nn<std::shared_ptr<osgeo::proj::operation::ParameterValue>>, std::allocator<dropbox::oxygen::nn<std::shared_ptr<osgeo::proj::operation::ParameterValue>>>>::_Vector_impl" }
%"struct.std::_Vector_base<dropbox::oxygen::nn<std::shared_ptr<osgeo::proj::operation::ParameterValue>>, std::allocator<dropbox::oxygen::nn<std::shared_ptr<osgeo::proj::operation::ParameterValue>>>>::_Vector_impl" = type { %"struct.std::_Vector_base<dropbox::oxygen::nn<std::shared_ptr<osgeo::proj::operation::ParameterValue>>, std::allocator<dropbox::oxygen::nn<std::shared_ptr<osgeo::proj::operation::ParameterValue>>>>::_Vector_impl_data" }
%"struct.std::_Vector_base<dropbox::oxygen::nn<std::shared_ptr<osgeo::proj::operation::ParameterValue>>, std::allocator<dropbox::oxygen::nn<std::shared_ptr<osgeo::proj::operation::ParameterValue>>>>::_Vector_impl_data" = type { ptr, ptr, ptr }
%"struct.osgeo::proj::operation::VectorOfValues" = type { %"class.std::vector.139" }
%"class.std::vector.139" = type { %"struct.std::_Vector_base.140" }

@.str.22 = private unnamed_addr constant [11 x i8] c"Sinusoidal\00", align 1

; Function Attrs: mustprogress uwtable
define hidden void @_ZN5osgeo4proj9operation10Conversion6createERKNS0_4util11PropertyMapEPKcRKSt6vectorIN7dropbox6oxygen2nnISt10shared_ptrINS1_14ParameterValueEEEESaISG_EE(ptr dead_on_unwind noalias writable sret(%"class.dropbox::oxygen::nn.42") align 8 %0, ptr noundef nonnull align 8 dereferenceable(8) %1, ptr noundef %2, ptr noundef nonnull align 8 dereferenceable(24) %3) #0 align 2 {
  %5 = alloca ptr, align 8
  %6 = alloca ptr, align 8
  %7 = alloca ptr, align 8
  %8 = alloca ptr, align 8
  %9 = alloca ptr, align 8
  store ptr %0, ptr %5, align 8
  store ptr %1, ptr %6, align 8, !tbaa !57
  store ptr %2, ptr %7, align 8, !tbaa !104
  store ptr %3, ptr %8, align 8, !tbaa !74
  call void @llvm.lifetime.start.p0(i64 8, ptr %9) #24
  %10 = load ptr, ptr %7, align 8, !tbaa !104
  %11 = call noundef ptr @_ZN5osgeo4proj9operation10getMappingEPKc(ptr noundef %10) #24
  store ptr %11, ptr %9, align 8, !tbaa !89
  %12 = load ptr, ptr %6, align 8, !tbaa !57
  %13 = load ptr, ptr %9, align 8, !tbaa !89
  %14 = load ptr, ptr %8, align 8, !tbaa !74
  call void @_ZN5osgeo4proj9operationL16createConversionERKNS0_4util11PropertyMapEPKNS1_13MethodMappingERKSt6vectorIN7dropbox6oxygen2nnISt10shared_ptrINS1_14ParameterValueEEEESaISG_EE(ptr dead_on_unwind writable sret(%"class.dropbox::oxygen::nn.42") align 8 %0, ptr noundef nonnull align 8 dereferenceable(8) %12, ptr noundef %13, ptr noundef nonnull align 8 dereferenceable(24) %14)
  call void @llvm.lifetime.end.p0(i64 8, ptr %9) #24
  ret void
}

; Function Attrs: mustprogress uwtable
define void @_ZN5osgeo4proj9operation10Conversion16createSinusoidalERKNS0_4util11PropertyMapERKNS0_6common5AngleERKNS7_6LengthESD_(ptr dead_on_unwind noalias writable sret(%"class.dropbox::oxygen::nn.42") align 8 %0, ptr noundef nonnull align 8 dereferenceable(8) %1, ptr noundef nonnull align 8 dereferenceable(24) %2, ptr noundef nonnull align 8 dereferenceable(24) %3, ptr noundef nonnull align 8 dereferenceable(24) %4) #0 align 2 personality ptr @__gxx_personality_v0 {
  %6 = alloca ptr, align 8
  %7 = alloca ptr, align 8
  %8 = alloca ptr, align 8
  %9 = alloca ptr, align 8
  %10 = alloca ptr, align 8
  %11 = alloca %"struct.osgeo::proj::operation::VectorOfValues", align 8
  %12 = alloca ptr, align 8
  %13 = alloca i32, align 4
  store ptr %0, ptr %6, align 8
  store ptr %1, ptr %7, align 8, !tbaa !57
  store ptr %2, ptr %8, align 8, !tbaa !105
  store ptr %3, ptr %9, align 8, !tbaa !109
  store ptr %4, ptr %10, align 8, !tbaa !109
  %14 = load ptr, ptr %7, align 8, !tbaa !57
  call void @llvm.lifetime.start.p0(i64 24, ptr %11) #24
  %15 = load ptr, ptr %8, align 8, !tbaa !105
  %16 = load ptr, ptr %9, align 8, !tbaa !109
  %17 = load ptr, ptr %10, align 8, !tbaa !109
  call void @_ZN5osgeo4proj9operation12createParamsERKNS0_6common7MeasureES5_S5_(ptr dead_on_unwind writable sret(%"struct.osgeo::proj::operation::VectorOfValues") align 8 %11, ptr noundef nonnull align 8 dereferenceable(24) %15, ptr noundef nonnull align 8 dereferenceable(24) %16, ptr noundef nonnull align 8 dereferenceable(24) %17)
  invoke void @_ZN5osgeo4proj9operation10Conversion6createERKNS0_4util11PropertyMapEPKcRKSt6vectorIN7dropbox6oxygen2nnISt10shared_ptrINS1_14ParameterValueEEEESaISG_EE(ptr dead_on_unwind writable sret(%"class.dropbox::oxygen::nn.42") align 8 %0, ptr noundef nonnull align 8 dereferenceable(8) %14, ptr noundef @.str.22, ptr noundef nonnull align 8 dereferenceable(24) %11)
          to label %18 unwind label %19

18:                                               ; preds = %5
  call void @_ZN5osgeo4proj9operation14VectorOfValuesD1Ev(ptr noundef nonnull align 8 dereferenceable(24) %11) #24
  call void @llvm.lifetime.end.p0(i64 24, ptr %11) #24
  ret void

19:                                               ; preds = %5
  %20 = landingpad { ptr, i32 }
          cleanup
  %21 = extractvalue { ptr, i32 } %20, 0
  store ptr %21, ptr %12, align 8
  %22 = extractvalue { ptr, i32 } %20, 1
  store i32 %22, ptr %13, align 4
  call void @_ZN5osgeo4proj9operation14VectorOfValuesD1Ev(ptr noundef nonnull align 8 dereferenceable(24) %11) #24
  call void @llvm.lifetime.end.p0(i64 24, ptr %11) #24
  br label %23

23:                                               ; preds = %19
  %24 = load ptr, ptr %12, align 8
  %25 = load i32, ptr %13, align 4
  %26 = insertvalue { ptr, i32 } poison, ptr %24, 0
  %27 = insertvalue { ptr, i32 } %26, i32 %25, 1
  resume { ptr, i32 } %27
}